target datalayout = "e-m:e-p270:32:32-p271:32:32-p272:64:64-i64:64-i128:128-f80:128-n8:16:32:64-S128"
target triple = "x86_64-pc-linux-gnu"

%struct.expert_field = type { i32, i32 }
%struct.modbus_data_t = type { i32, i16, i8 }
%struct._packet_info = type { ptr, ptr, i32, i32, %struct.nstime_t, %struct.nstime_t, %struct.nstime_t, i8, ptr, ptr, ptr, ptr, %struct._address, %struct._address, %struct._address, %struct._address, %struct._address, %struct._address, i32, ptr, i8, [3 x i8], %struct.anon, i32, i32, i32, i32, ptr, i8, ptr, ptr, i16, i16, i32, i32, i16, i32, i32, ptr, ptr, ptr, i8, i8, i16, i16, i16, i32, i16, i16, ptr, ptr, ptr, ptr, ptr, i32, i32 }
%struct.nstime_t = type { i64, i32 }
%struct._address = type { i32, i32, ptr, ptr }
%struct.anon = type { i8, [3 x i8] }

@hf_mbrtu_unitid = internal global i32 0, align 4
@hf_mbrtu_crc16 = internal global i32 0, align 4
@hf_mbrtu_crc16_status = internal global i32 0, align 4
@ei_mbrtu_crc16_incorrect = internal global %struct.expert_field zeroinitializer, align 4
@ett_mbrtu = internal global i32 0, align 4
@.str.158 = private unnamed_addr constant [11 x i8] c"Modbus RTU\00", align 1
@proto_mbrtu = internal global i32 0, align 4
@modbus_handle = internal global ptr null, align 8
@mbrtu_crc = internal global i8 0, align 1
@.str.190 = private unnamed_addr constant [12 x i8] c"Diagnostics\00", align 1
@.str.201 = private unnamed_addr constant [33 x i8] c"Encapsulated Interface Transport\00", align 1
@encap_interface_code_vals = internal constant [3 x { i32, [4 x i8], ptr }] [{ i32, [4 x i8], ptr } { i32 13, [4 x i8] zeroinitializer, ptr @.str.233 }, { i32, [4 x i8], ptr } { i32 14, [4 x i8] zeroinitializer, ptr @.str.234 }, { i32, [4 x i8], ptr } zeroinitializer], align 16
@.str.276 = private unnamed_addr constant [1 x i8] zeroinitializer, align 1
@.str.277 = private unnamed_addr constant [6 x i8] c"Query\00", align 1
@.str.278 = private unnamed_addr constant [9 x i8] c"Response\00", align 1
@.str.279 = private unnamed_addr constant [41 x i8] c"Unable to classify as query or response.\00", align 1
@.str.280 = private unnamed_addr constant [8 x i8] c"unknown\00", align 1
@.str.281 = private unnamed_addr constant [22 x i8] c"Unknown function (%d)\00", align 1
@.str.282 = private unnamed_addr constant [20 x i8] c"Exception returned \00", align 1
@.str.288 = private unnamed_addr constant [34 x i8] c"%8s: Unit: %3u, Func: %3u: %s. %s\00", align 1
@.str.289 = private unnamed_addr constant [30 x i8] c"%8s: Unit: %3u, Func: %3u: %s\00", align 1
@.str.290 = private unnamed_addr constant [38 x i8] c"%8s: Unit: %3u, Func: %3u/%3u: %s. %s\00", align 1
@.str.291 = private unnamed_addr constant [34 x i8] c"%8s: Unit: %3u, Func: %3u/%3u: %s\00", align 1

; Function Attrs: null_pointer_is_valid sspstrong uwtable
define internal i32 @dissect_mbrtu_pdu_common(ptr noundef %0, ptr noundef %1, ptr noundef %2, ptr noundef %3) #0 {
  %5 = alloca ptr, align 8
  %6 = alloca ptr, align 8
  %7 = alloca ptr, align 8
  %8 = alloca ptr, align 8
  %9 = alloca ptr, align 8
  %10 = alloca ptr, align 8
  %11 = alloca i32, align 4
  %12 = alloca ptr, align 8
  %13 = alloca ptr, align 8
  %14 = alloca ptr, align 8
  %15 = alloca ptr, align 8
  %16 = alloca i16, align 2
  %17 = alloca i16, align 2
  %18 = alloca i8, align 1
  %19 = alloca i8, align 1
  %20 = alloca i8, align 1
  %21 = alloca i8, align 1
  %22 = alloca %struct.modbus_data_t, align 4
  store ptr %0, ptr %5, align 8
  store ptr %1, ptr %6, align 8
  store ptr %2, ptr %7, align 8
  store ptr %3, ptr %8, align 8
  call void @llvm.lifetime.start.p0(i64 8, ptr %9) #10
  call void @llvm.lifetime.start.p0(i64 8, ptr %10) #10
  call void @llvm.lifetime.start.p0(i64 4, ptr %11) #10
  call void @llvm.lifetime.start.p0(i64 8, ptr %12) #10
  call void @llvm.lifetime.start.p0(i64 8, ptr %13) #10
  call void @llvm.lifetime.start.p0(i64 8, ptr %14) #10
  store ptr @.str.276, ptr %14, align 8
  call void @llvm.lifetime.start.p0(i64 8, ptr %15) #10
  store ptr @.str.276, ptr %15, align 8
  call void @llvm.lifetime.start.p0(i64 2, ptr %16) #10
  call void @llvm.lifetime.start.p0(i64 2, ptr %17) #10
  call void @llvm.lifetime.start.p0(i64 1, ptr %18) #10
  call void @llvm.lifetime.start.p0(i64 1, ptr %19) #10
  call void @llvm.lifetime.start.p0(i64 1, ptr %20) #10
  call void @llvm.lifetime.start.p0(i64 1, ptr %21) #10
  call void @llvm.lifetime.start.p0(i64 8, ptr %22) #10
  %23 = load ptr, ptr %6, align 8
  %24 = getelementptr inbounds nuw %struct._packet_info, ptr %23, i32 0, i32 1
  %25 = load ptr, ptr %24, align 8
  call void @col_set_str(ptr noundef %25, i32 noundef 35, ptr noundef @.str.158)
  %26 = load ptr, ptr %6, align 8
  %27 = getelementptr inbounds nuw %struct._packet_info, ptr %26, i32 0, i32 1
  %28 = load ptr, ptr %27, align 8
  call void @col_clear(ptr noundef %28, i32 noundef 25)
  %29 = load ptr, ptr %5, align 8
  %30 = call i32 @tvb_reported_length(ptr noundef %29)
  %31 = trunc i32 %30 to i16
  store i16 %31, ptr %16, align 2
  %32 = load ptr, ptr %5, align 8
  %33 = call zeroext i8 @tvb_get_uint8(ptr noundef %32, i32 noundef 0)
  store i8 %33, ptr %18, align 1
  %34 = load ptr, ptr %5, align 8
  %35 = call zeroext i8 @tvb_get_uint8(ptr noundef %34, i32 noundef 1)
  %36 = zext i8 %35 to i32
  %37 = and i32 %36, 127
  %38 = trunc i32 %37 to i8
  store i8 %38, ptr %19, align 1
  store i32 0, ptr %11, align 4
  %39 = load ptr, ptr %6, align 8
  %40 = load ptr, ptr %5, align 8
  %41 = load ptr, ptr %8, align 8
  %42 = call i32 @classify_mbrtu_packet(ptr noundef %39, ptr noundef %40, ptr noundef %41)
  %43 = getelementptr inbounds nuw %struct.modbus_data_t, ptr %22, i32 0, i32 0
  store i32 %42, ptr %43, align 4
  %44 = getelementptr inbounds nuw %struct.modbus_data_t, ptr %22, i32 0, i32 1
  store i16 0, ptr %44, align 4
  %45 = load i8, ptr %18, align 1
  %46 = getelementptr inbounds nuw %struct.modbus_data_t, ptr %22, i32 0, i32 2
  store i8 %45, ptr %46, align 2
  %47 = getelementptr inbounds nuw %struct.modbus_data_t, ptr %22, i32 0, i32 0
  %48 = load i32, ptr %47, align 4
  switch i32 %48, label %52 [
    i32 0, label %49
    i32 1, label %50
    i32 2, label %51
  ]

49:                                               ; preds = %4
  store ptr @.str.277, ptr %14, align 8
  br label %53

50:                                               ; preds = %4
  store ptr @.str.278, ptr %14, align 8
  br label %53

51:                                               ; preds = %4
  store ptr @.str.279, ptr %15, align 8
  store ptr @.str.280, ptr %14, align 8
  br label %53

52:                                               ; preds = %4
  br label %53

53:                                               ; preds = %52, %51, %50, %49
  %54 = load ptr, ptr %5, align 8
  %55 = call zeroext i8 @tvb_get_uint8(ptr noundef %54, i32 noundef 1)
  %56 = zext i8 %55 to i32
  %57 = and i32 %56, 128
  %58 = icmp ne i32 %57, 0
  br i1 %58, label %59, label %64

59:                                               ; preds = %53
  %60 = load ptr, ptr %5, align 8
  %61 = load i32, ptr %11, align 4
  %62 = add i32 %61, 2
  %63 = call zeroext i8 @tvb_get_uint8(ptr noundef %60, i32 noundef %62)
  store i8 %63, ptr %20, align 1
  br label %65

64:                                               ; preds = %53
  store i8 0, ptr %20, align 1
  br label %65

65:                                               ; preds = %64, %59
  %66 = load i8, ptr %19, align 1
  %67 = zext i8 %66 to i32
  %68 = icmp eq i32 %67, 43
  br i1 %68, label %69, label %80

69:                                               ; preds = %65
  %70 = load i8, ptr %20, align 1
  %71 = zext i8 %70 to i32
  %72 = icmp eq i32 %71, 0
  br i1 %72, label %73, label %80

73:                                               ; preds = %69
  %74 = load ptr, ptr %5, align 8
  %75 = load i32, ptr %11, align 4
  %76 = add i32 %75, 2
  %77 = call zeroext i8 @tvb_get_uint8(ptr noundef %74, i32 noundef %76)
  %78 = zext i8 %77 to i32
  %79 = call ptr @val_to_str_const(i32 noundef %78, ptr noundef @encap_interface_code_vals, ptr noundef @.str.201)
  store ptr %79, ptr %13, align 8
  store i8 1, ptr %21, align 1
  br label %100

80:                                               ; preds = %69, %65
  %81 = load i8, ptr %19, align 1
  %82 = zext i8 %81 to i32
  %83 = icmp eq i32 %82, 8
  br i1 %83, label %84, label %95

84:                                               ; preds = %80
  %85 = load i8, ptr %20, align 1
  %86 = zext i8 %85 to i32
  %87 = icmp eq i32 %86, 0
  br i1 %87, label %88, label %95

88:                                               ; preds = %84
  %89 = load ptr, ptr %5, align 8
  %90 = load i32, ptr %11, align 4
  %91 = add i32 %90, 2
  %92 = call zeroext i16 @tvb_get_ntohs(ptr noundef %89, i32 noundef %91)
  %93 = zext i16 %92 to i32
  %94 = call ptr @val_to_str_const(i32 noundef %93, ptr noundef @diagnostic_code_vals, ptr noundef @.str.190)
  store ptr %94, ptr %13, align 8
  store i8 1, ptr %21, align 1
  br label %99

95:                                               ; preds = %84, %80
  %96 = load i8, ptr %19, align 1
  %97 = zext i8 %96 to i32
  %98 = call ptr @val_to_str(i32 noundef %97, ptr noundef @function_code_vals, ptr noundef @.str.281)
  store ptr %98, ptr %13, align 8
  store i8 0, ptr %21, align 1
  br label %99

99:                                               ; preds = %95, %88
  br label %100

100:                                              ; preds = %99, %73
  %101 = load i8, ptr %20, align 1
  %102 = zext i8 %101 to i32
  %103 = icmp ne i32 %102, 0
  br i1 %103, label %104, label %105

104:                                              ; preds = %100
  store ptr @.str.282, ptr %15, align 8
  br label %105

105:                                              ; preds = %104, %100
  %106 = load i8, ptr %21, align 1
  %107 = zext i8 %106 to i32
  %108 = icmp eq i32 %107, 0
  br i1 %108, label %109, label %135

109:                                              ; preds = %105
  %110 = load ptr, ptr %15, align 8
  %111 = call i64 @strlen(ptr noundef %110) #12
  %112 = icmp ugt i64 %111, 0
  br i1 %112, label %113, label %124

113:                                              ; preds = %109
  %114 = load ptr, ptr %6, align 8
  %115 = getelementptr inbounds nuw %struct._packet_info, ptr %114, i32 0, i32 1
  %116 = load ptr, ptr %115, align 8
  %117 = load ptr, ptr %14, align 8
  %118 = load i8, ptr %18, align 1
  %119 = zext i8 %118 to i32
  %120 = load i8, ptr %19, align 1
  %121 = zext i8 %120 to i32
  %122 = load ptr, ptr %13, align 8
  %123 = load ptr, ptr %15, align 8
  call void (ptr, i32, ptr, ...) @col_add_fstr(ptr noundef %116, i32 noundef 25, ptr noundef @.str.288, ptr noundef %117, i32 noundef %119, i32 noundef %121, ptr noundef %122, ptr noundef %123)
  br label %134

124:                                              ; preds = %109
  %125 = load ptr, ptr %6, align 8
  %126 = getelementptr inbounds nuw %struct._packet_info, ptr %125, i32 0, i32 1
  %127 = load ptr, ptr %126, align 8
  %128 = load ptr, ptr %14, align 8
  %129 = load i8, ptr %18, align 1
  %130 = zext i8 %129 to i32
  %131 = load i8, ptr %19, align 1
  %132 = zext i8 %131 to i32
  %133 = load ptr, ptr %13, align 8
  call void (ptr, i32, ptr, ...) @col_add_fstr(ptr noundef %127, i32 noundef 25, ptr noundef @.str.289, ptr noundef %128, i32 noundef %130, i32 noundef %132, ptr noundef %133)
  br label %134

134:                                              ; preds = %124, %113
  br label %165

135:                                              ; preds = %105
  %136 = load ptr, ptr %15, align 8
  %137 = call i64 @strlen(ptr noundef %136) #12
  %138 = icmp ugt i64 %137, 0
  br i1 %138, label %139, label %152

139:                                              ; preds = %135
  %140 = load ptr, ptr %6, align 8
  %141 = getelementptr inbounds nuw %struct._packet_info, ptr %140, i32 0, i32 1
  %142 = load ptr, ptr %141, align 8
  %143 = load ptr, ptr %14, align 8
  %144 = load i8, ptr %18, align 1
  %145 = zext i8 %144 to i32
  %146 = load i8, ptr %19, align 1
  %147 = zext i8 %146 to i32
  %148 = load i8, ptr %21, align 1
  %149 = zext i8 %148 to i32
  %150 = load ptr, ptr %13, align 8
  %151 = load ptr, ptr %15, align 8
  call void (ptr, i32, ptr, ...) @col_add_fstr(ptr noundef %142, i32 noundef 25, ptr noundef @.str.290, ptr noundef %143, i32 noundef %145, i32 noundef %147, i32 noundef %149, ptr noundef %150, ptr noundef %151)
  br label %164

152:                                              ; preds = %135
  %153 = load ptr, ptr %6, align 8
  %154 = getelementptr inbounds nuw %struct._packet_info, ptr %153, i32 0, i32 1
  %155 = load ptr, ptr %154, align 8
  %156 = load ptr, ptr %14, align 8
  %157 = load i8, ptr %18, align 1
  %158 = zext i8 %157 to i32
  %159 = load i8, ptr %19, align 1
  %160 = zext i8 %159 to i32
  %161 = load i8, ptr %21, align 1
  %162 = zext i8 %161 to i32
  %163 = load ptr, ptr %13, align 8
  call void (ptr, i32, ptr, ...) @col_add_fstr(ptr noundef %155, i32 noundef 25, ptr noundef @.str.291, ptr noundef %156, i32 noundef %158, i32 noundef %160, i32 noundef %162, ptr noundef %163)
  br label %164

164:                                              ; preds = %152, %139
  br label %165

165:                                              ; preds = %164, %134
  %166 = load ptr, ptr %7, align 8
  %167 = load i32, ptr @proto_mbrtu, align 4
  %168 = load ptr, ptr %5, align 8
  %169 = load i32, ptr %11, align 4
  %170 = load i16, ptr %16, align 2
  %171 = zext i16 %170 to i32
  %172 = call ptr (ptr, i32, ptr, i32, i32, ptr, ...) @proto_tree_add_protocol_format(ptr noundef %166, i32 noundef %167, ptr noundef %168, i32 noundef %169, i32 noundef %171, ptr noundef @.str.158)
  store ptr %172, ptr %9, align 8
  %173 = load ptr, ptr %9, align 8
  %174 = load i32, ptr @ett_mbrtu, align 4
  %175 = call ptr @proto_item_add_subtree(ptr noundef %173, i32 noundef %174)
  store ptr %175, ptr %10, align 8
  %176 = load ptr, ptr %10, align 8
  %177 = load i32, ptr @hf_mbrtu_unitid, align 4
  %178 = load ptr, ptr %5, align 8
  %179 = load i32, ptr %11, align 4
  %180 = load i8, ptr %18, align 1
  %181 = zext i8 %180 to i32
  %182 = call ptr @proto_tree_add_uint(ptr noundef %176, i32 noundef %177, ptr noundef %178, i32 noundef %179, i32 noundef 1, i32 noundef %181)
  %183 = load i8, ptr @mbrtu_crc, align 1, !range !6, !noundef !7
  %184 = trunc i8 %183 to i1
  br i1 %184, label %185, label %214

185:                                              ; preds = %165
  %186 = load ptr, ptr %5, align 8
  %187 = load i32, ptr %11, align 4
  %188 = load i16, ptr %16, align 2
  %189 = zext i16 %188 to i32
  %190 = sub i32 %189, 2
  %191 = call zeroext i16 @crc16_plain_tvb_offset_seed(ptr noundef %186, i32 noundef %187, i32 noundef %190, i16 noundef zeroext -1)
  store i16 %191, ptr %17, align 2
  %192 = load ptr, ptr %10, align 8
  %193 = load ptr, ptr %5, align 8
  %194 = load i16, ptr %16, align 2
  %195 = zext i16 %194 to i32
  %196 = sub i32 %195, 2
  %197 = load i32, ptr @hf_mbrtu_crc16, align 4
  %198 = load i32, ptr @hf_mbrtu_crc16_status, align 4
  %199 = load ptr, ptr %6, align 8
  %200 = load i16, ptr %17, align 2
  %201 = zext i16 %200 to i32
  %202 = ashr i32 %201, 8
  %203 = trunc i32 %202 to i16
  %204 = zext i16 %203 to i32
  %205 = load i16, ptr %17, align 2
  %206 = zext i16 %205 to i32
  %207 = shl i32 %206, 8
  %208 = trunc i32 %207 to i16
  %209 = zext i16 %208 to i32
  %210 = or i32 %204, %209
  %211 = trunc i32 %210 to i16
  %212 = zext i16 %211 to i32
  %213 = call ptr @proto_tree_add_checksum(ptr noundef %192, ptr noundef %193, i32 noundef %196, i32 noundef %197, i32 noundef %198, ptr noundef @ei_mbrtu_crc16_incorrect, ptr noundef %199, i32 noundef %212, i32 noundef 0, i32 noundef 1)
  br label %224

214:                                              ; preds = %165
  %215 = load ptr, ptr %10, align 8
  %216 = load ptr, ptr %5, align 8
  %217 = load i16, ptr %16, align 2
  %218 = zext i16 %217 to i32
  %219 = sub i32 %218, 2
  %220 = load i32, ptr @hf_mbrtu_crc16, align 4
  %221 = load i32, ptr @hf_mbrtu_crc16_status, align 4
  %222 = load ptr, ptr %6, align 8
  %223 = call ptr @proto_tree_add_checksum(ptr noundef %215, ptr noundef %216, i32 noundef %219, i32 noundef %220, i32 noundef %221, ptr noundef @ei_mbrtu_crc16_incorrect, ptr noundef %222, i32 noundef 0, i32 noundef 0, i32 noundef 0)
  br label %224

224:                                              ; preds = %214, %185
  %225 = load i16, ptr %16, align 2
  %226 = zext i16 %225 to i32
  %227 = sub i32 %226, 3
  %228 = trunc i32 %227 to i16
  store i16 %228, ptr %16, align 2
  %229 = load ptr, ptr %5, align 8
  %230 = load i32, ptr %11, align 4
  %231 = add i32 %230, 1
  %232 = load i16, ptr %16, align 2
  %233 = zext i16 %232 to i32
  %234 = call ptr @tvb_new_subset_length(ptr noundef %229, i32 noundef %231, i32 noundef %233)
  store ptr %234, ptr %12, align 8
  %235 = load ptr, ptr %5, align 8
  %236 = load i32, ptr %11, align 4
  %237 = call i32 @tvb_reported_length_remaining(ptr noundef %235, i32 noundef %236)
  %238 = icmp sgt i32 %237, 0
  br i1 %238, label %239, label %245

239:                                              ; preds = %224
  %240 = load ptr, ptr @modbus_handle, align 8
  %241 = load ptr, ptr %12, align 8
  %242 = load ptr, ptr %6, align 8
  %243 = load ptr, ptr %7, align 8
  %244 = call i32 @call_dissector_with_data(ptr noundef %240, ptr noundef %241, ptr noundef %242, ptr noundef %243, ptr noundef %22)
  br label %245

245:                                              ; preds = %239, %224
  %246 = load ptr, ptr %5, align 8
  %247 = call i32 @tvb_captured_length(ptr noundef %246)
  call void @llvm.lifetime.end.p0(i64 8, ptr %22) #10
  call void @llvm.lifetime.end.p0(i64 1, ptr %21) #10
  call void @llvm.lifetime.end.p0(i64 1, ptr %20) #10
  call void @llvm.lifetime.end.p0(i64 1, ptr %19) #10
  call void @llvm.lifetime.end.p0(i64 1, ptr %18) #10
  call void @llvm.lifetime.end.p0(i64 2, ptr %17) #10
  call void @llvm.lifetime.end.p0(i64 2, ptr %16) #10
  call void @llvm.lifetime.end.p0(i64 8, ptr %15) #10
  call void @llvm.lifetime.end.p0(i64 8, ptr %14) #10
  call void @llvm.lifetime.end.p0(i64 8, ptr %13) #10
  call void @llvm.lifetime.end.p0(i64 8, ptr %12) #10
  call void @llvm.lifetime.end.p0(i64 4, ptr %11) #10
  call void @llvm.lifetime.end.p0(i64 8, ptr %10) #10
  call void @llvm.lifetime.end.p0(i64 8, ptr %9) #10
  ret i32 %247
}