; Function Attrs: null_pointer_is_valid sspstrong uwtable
define internal fastcc i32 @dissect_mbrtu_pdu_common(ptr noundef %0, ptr noundef %1, ptr noundef %2, ptr noundef %3) unnamed_addr #0 {
switch.lookup:
  %4 = alloca %struct.modbus_data_t, align 4
  call void @llvm.lifetime.start.p0(i64 8, ptr nonnull %4) #7
  %5 = getelementptr inbounds nuw i8, ptr %1, i64 8
  %6 = load ptr, ptr %5, align 8
  tail call void @col_set_str(ptr noundef %6, i32 noundef 35, ptr noundef nonnull @.str.158)
  %7 = load ptr, ptr %5, align 8
  tail call void @col_clear(ptr noundef %7, i32 noundef 25)
  %8 = tail call i32 @tvb_reported_length(ptr noundef %0)
  %9 = tail call zeroext i8 @tvb_get_uint8(ptr noundef %0, i32 noundef 0)
  %10 = tail call zeroext i8 @tvb_get_uint8(ptr noundef %0, i32 noundef 1)
  %11 = and i8 %10, 127
  %12 = tail call fastcc i32 @classify_mbrtu_packet(ptr noundef %1, ptr noundef %0, ptr noundef %3)
  store i32 %12, ptr %4, align 4
  %13 = getelementptr inbounds nuw i8, ptr %4, i64 4
  store i16 0, ptr %13, align 4
  %14 = getelementptr inbounds nuw i8, ptr %4, i64 6
  store i8 %9, ptr %14, align 2
  %15 = zext nneg i32 %12 to i64
  %switch.gep = getelementptr inbounds nuw [3 x ptr], ptr @switch.table.dissect_mbrtu_pdu_common, i64 0, i64 %15
  %switch.load = load ptr, ptr %switch.gep, align 8
  %16 = zext nneg i32 %12 to i64
  %switch.gep98 = getelementptr inbounds nuw [3 x ptr], ptr @switch.table.dissect_mbrtu_pdu_common.1, i64 0, i64 %16
  %switch.load99 = load ptr, ptr %switch.gep98, align 8
  %17 = tail call zeroext i8 @tvb_get_uint8(ptr noundef %0, i32 noundef 1)
  %.not = icmp sgt i8 %17, -1
  br i1 %.not, label %21, label %18

18:                                               ; preds = %switch.lookup
  %19 = tail call zeroext i8 @tvb_get_uint8(ptr noundef %0, i32 noundef 2)
  %20 = icmp eq i8 %19, 0
  br label %21

21:                                               ; preds = %switch.lookup, %18
  %.085 = phi i1 [ %20, %18 ], [ true, %switch.lookup ]
  %22 = zext nneg i8 %11 to i32
  %23 = icmp eq i8 %11, 43
  %or.cond = select i1 %23, i1 %.085, i1 false
  br i1 %or.cond, label %24, label %28

24:                                               ; preds = %21
  %25 = tail call zeroext i8 @tvb_get_uint8(ptr noundef %0, i32 noundef 2)
  %26 = zext i8 %25 to i32
  %27 = tail call ptr @val_to_str_const(i32 noundef %26, ptr noundef nonnull @encap_interface_code_vals, ptr noundef nonnull @.str.201)
  br label %40

28:                                               ; preds = %21
  %29 = icmp eq i8 %11, 8
  %or.cond5 = select i1 %29, i1 %.085, i1 false
  br i1 %or.cond5, label %30, label %34

30:                                               ; preds = %28
  %31 = tail call zeroext i16 @tvb_get_ntohs(ptr noundef %0, i32 noundef 2)
  %32 = zext i16 %31 to i32
  %33 = tail call ptr @val_to_str_const(i32 noundef %32, ptr noundef nonnull @diagnostic_code_vals, ptr noundef nonnull @.str.190)
  br label %40

34:                                               ; preds = %28
  %35 = tail call ptr @val_to_str(i32 noundef %22, ptr noundef nonnull @function_code_vals, ptr noundef nonnull @.str.281)
  %spec.select = select i1 %.085, ptr %switch.load, ptr @.str.282
  %char092 = load i8, ptr %spec.select, align 1
  %.not93 = icmp eq i8 %char092, 0
  %36 = load ptr, ptr %5, align 8
  %37 = zext i8 %9 to i32
  br i1 %.not93, label %39, label %38

38:                                               ; preds = %34
  tail call void (ptr, i32, ptr, ...) @col_add_fstr(ptr noundef %36, i32 noundef 25, ptr noundef nonnull @.str.288, ptr noundef nonnull %switch.load99, i32 noundef %37, i32 noundef %22, ptr noundef %35, ptr noundef nonnull %spec.select)
  br label %45

39:                                               ; preds = %34
  tail call void (ptr, i32, ptr, ...) @col_add_fstr(ptr noundef %36, i32 noundef 25, ptr noundef nonnull @.str.289, ptr noundef nonnull %switch.load99, i32 noundef %37, i32 noundef %22, ptr noundef %35)
  br label %45

40:                                               ; preds = %24, %30
  %.086.ph = phi ptr [ %33, %30 ], [ %27, %24 ]
  %spec.select95 = select i1 %.085, ptr %switch.load, ptr @.str.282
  %char0 = load i8, ptr %spec.select95, align 1
  %.not91 = icmp eq i8 %char0, 0
  %41 = load ptr, ptr %5, align 8
  %42 = zext i8 %9 to i32
  br i1 %.not91, label %44, label %43

43:                                               ; preds = %40
  tail call void (ptr, i32, ptr, ...) @col_add_fstr(ptr noundef %41, i32 noundef 25, ptr noundef nonnull @.str.290, ptr noundef nonnull %switch.load99, i32 noundef %42, i32 noundef %22, i32 noundef 1, ptr noundef %.086.ph, ptr noundef nonnull %spec.select95)
  br label %45

44:                                               ; preds = %40
  tail call void (ptr, i32, ptr, ...) @col_add_fstr(ptr noundef %41, i32 noundef 25, ptr noundef nonnull @.str.291, ptr noundef nonnull %switch.load99, i32 noundef %42, i32 noundef %22, i32 noundef 1, ptr noundef %.086.ph)
  br label %45

45:                                               ; preds = %43, %44, %38, %39
  %.pre-phi = phi i32 [ %42, %43 ], [ %42, %44 ], [ %37, %38 ], [ %37, %39 ]
  %46 = load i32, ptr @proto_mbrtu, align 4
  %47 = and i32 %8, 65535
  %48 = tail call ptr (ptr, i32, ptr, i32, i32, ptr, ...) @proto_tree_add_protocol_format(ptr noundef %2, i32 noundef %46, ptr noundef %0, i32 noundef 0, i32 noundef %47, ptr noundef nonnull @.str.158)
  %49 = load i32, ptr @ett_mbrtu, align 4
  %50 = tail call ptr @proto_item_add_subtree(ptr noundef %48, i32 noundef %49)
  %51 = load i32, ptr @hf_mbrtu_unitid, align 4
  %52 = tail call ptr @proto_tree_add_uint(ptr noundef %50, i32 noundef %51, ptr noundef %0, i32 noundef 0, i32 noundef 1, i32 noundef %.pre-phi)
  %53 = load i8, ptr @mbrtu_crc, align 1, !range !6, !noundef !7
  %54 = trunc nuw i8 %53 to i1
  %55 = add nsw i32 %47, -2
  br i1 %54, label %56, label %62

56:                                               ; preds = %45
  %57 = tail call zeroext i16 @crc16_plain_tvb_offset_seed(ptr noundef %0, i32 noundef 0, i32 noundef %55, i16 noundef zeroext -1)
  %58 = load i32, ptr @hf_mbrtu_crc16, align 4
  %59 = load i32, ptr @hf_mbrtu_crc16_status, align 4
  %rev = tail call i16 @llvm.bswap.i16(i16 %57)
  %60 = zext i16 %rev to i32
  %61 = tail call ptr @proto_tree_add_checksum(ptr noundef %50, ptr noundef %0, i32 noundef %55, i32 noundef %58, i32 noundef %59, ptr noundef nonnull @ei_mbrtu_crc16_incorrect, ptr noundef %1, i32 noundef %60, i32 noundef 0, i32 noundef 1)
  br label %66

62:                                               ; preds = %45
  %63 = load i32, ptr @hf_mbrtu_crc16, align 4
  %64 = load i32, ptr @hf_mbrtu_crc16_status, align 4
  %65 = tail call ptr @proto_tree_add_checksum(ptr noundef %50, ptr noundef %0, i32 noundef %55, i32 noundef %63, i32 noundef %64, ptr noundef nonnull @ei_mbrtu_crc16_incorrect, ptr noundef %1, i32 noundef 0, i32 noundef 0, i32 noundef 0)
  br label %66

66:                                               ; preds = %62, %56
  %67 = add i32 %8, 65533
  %68 = and i32 %67, 65535
  %69 = tail call ptr @tvb_new_subset_length(ptr noundef %0, i32 noundef 1, i32 noundef %68)
  %70 = tail call i32 @tvb_reported_length_remaining(ptr noundef %0, i32 noundef 0)
  %71 = icmp sgt i32 %70, 0
  br i1 %71, label %72, label %75

72:                                               ; preds = %66
  %73 = load ptr, ptr @modbus_handle, align 8
  %74 = call i32 @call_dissector_with_data(ptr noundef %73, ptr noundef %69, ptr noundef %1, ptr noundef %2, ptr noundef nonnull %4)
  br label %75

75:                                               ; preds = %72, %66
  %76 = call i32 @tvb_captured_length(ptr noundef %0)
  call void @llvm.lifetime.end.p0(i64 8, ptr nonnull %4) #7
  ret i32 %76
}